; Function Attrs: mustprogress uwtable
define dso_local void @_ZN4Json17CharReaderBuilderC2Ev(ptr noundef nonnull align 8 dereferenceable(48) %0) unnamed_addr #6 align 2 personality ptr @__gxx_personality_v0 {
  store ptr getelementptr inbounds ({ [5 x ptr] }, ptr @_ZTVN4Json17CharReaderBuilderE, i64 0, i32 0, i64 2), ptr %0, align 8
  %2 = getelementptr inbounds i8, ptr %0, i64 8
  tail call void @_ZN4Json5ValueC1ENS_9ValueTypeE(ptr noundef nonnull align 8 dereferenceable(40) %2, i32 noundef 0)
  invoke void @_ZN4Json17CharReaderBuilder11setDefaultsEPNS_5ValueE(ptr noundef nonnull %2)
          to label %3 unwind label %4

3:                                                ; preds = %1
  ret void

4:                                                ; preds = %1
  %5 = landingpad { ptr, i32 }
          cleanup
  tail call void @_ZN4Json5ValueD1Ev(ptr noundef nonnull align 8 dereferenceable(40) %2) #25
  resume { ptr, i32 } %5
}